target datalayout = "e-m:e-p270:32:32-p271:32:32-p272:64:64-i64:64-i128:128-f80:128-n8:16:32:64-S128"
target triple = "x86_64-pc-linux-gnu"

%struct.timespec = type { i64, i64 }
%struct.conmgr_callbacks_t = type { ptr, ptr }
%union.pthread_mutex_t = type { %struct.__pthread_mutex_s }
%struct.__pthread_mutex_s = type { i32, i32, i32, i32, i32, i16, i16, %struct.__pthread_internal_list }
%struct.__pthread_internal_list = type { ptr, ptr }
%struct.event_signal_t = type { ptr, %union.pthread_cond_t, i32, i32 }
%union.pthread_cond_t = type { %struct.__pthread_cond_s }
%struct.__pthread_cond_s = type { %union.__atomic_wide_counter, %union.__atomic_wide_counter, [2 x i32], [2 x i32], i32, i32, [2 x i32] }
%union.__atomic_wide_counter = type { i64 }
%struct.slurm_conf_t = type { i64, ptr, i16, ptr, ptr, ptr, ptr, ptr, i16, ptr, ptr, ptr, ptr, ptr, ptr, ptr, i16, ptr, ptr, ptr, ptr, i16, ptr, ptr, ptr, i64, ptr, ptr, ptr, ptr, i16, ptr, ptr, i16, i32, ptr, i32, ptr, i32, i32, ptr, ptr, i64, i64, ptr, i16, i16, ptr, i32, i32, ptr, i32, ptr, i32, i16, i16, i16, ptr, i16, i16, ptr, ptr, i32, i16, i16, ptr, i32, i16, ptr, ptr, ptr, ptr, i16, ptr, ptr, ptr, ptr, i32, ptr, ptr, ptr, ptr, i16, i16, ptr, i32, i32, i32, i16, i16, ptr, ptr, i16, ptr, ptr, i32, i32, i32, i32, i32, i64, i32, i32, i16, ptr, ptr, i32, ptr, ptr, ptr, i16, i32, ptr, ptr, i16, ptr, ptr, i32, i16, ptr, ptr, ptr, ptr, i32, i32, i16, i16, i32, ptr, i16, ptr, i32, i32, i32, i32, i32, i32, ptr, i16, ptr, ptr, i32, i16, ptr, i32, i16, i16, ptr, ptr, ptr, i16, ptr, ptr, ptr, ptr, i16, i16, ptr, i16, ptr, i16, ptr, i16, ptr, i16, ptr, ptr, ptr, ptr, i16, ptr, ptr, ptr, i32, ptr, i32, ptr, ptr, i16, ptr, ptr, i32, i16, ptr, ptr, i16, i16, ptr, i16, ptr, ptr, ptr, i32, ptr, i16, i16, ptr, ptr, ptr, ptr, ptr, ptr, ptr, ptr, i16, i32, i16, ptr, ptr, ptr, ptr, i32, ptr, ptr, ptr, i16, ptr, ptr, ptr, i16, ptr, i16, ptr, i16, i16, ptr }
%struct.conmgr_t = type { i32, i32, %struct.timespec, %struct.timespec, %struct.timespec, i32, ptr, ptr, ptr, i8, i8, i64, %struct.timespec, i8, i8, i8, i8, i8, i32, ptr, ptr, %struct.conmgr_callbacks_t, %union.pthread_mutex_t, %struct.anon, %struct.anon.1, %struct.event_signal_t, %struct.event_signal_t, %struct.event_signal_t, %struct.event_signal_t }
%struct.anon = type { i32, ptr, i32, i32, i8, i32 }
%struct.anon.1 = type { i8, i8, %struct.event_signal_t, %struct.event_signal_t }

@.str.6 = private unnamed_addr constant [29 x i8] c"%s: pthread_mutex_lock(): %m\00", align 1
@.str.9 = private unnamed_addr constant [31 x i8] c"%s: pthread_mutex_unlock(): %m\00", align 1
@slurm_conf = external global %struct.slurm_conf_t, align 8
@__func__.conmgr_quiesce = private unnamed_addr constant [15 x i8] c"conmgr_quiesce\00", align 1
@.str.33 = private unnamed_addr constant [34 x i8] c"CONMGR: %s->%s: quiesce requested\00", align 1

; Function Attrs: nounwind uwtable
define dso_local void @conmgr_quiesce(ptr noundef %0) #0 {
  %2 = alloca ptr, align 8
  %3 = alloca i32, align 4
  %4 = alloca %struct.timespec, align 8
  %5 = alloca %struct.timespec, align 8
  %6 = alloca i32, align 4
  store ptr %0, ptr %2, align 8
  br label %7

7:                                                ; preds = %1
  call void @llvm.lifetime.start.p0(i64 4, ptr %3) #8
  %8 = call i32 @pthread_mutex_lock(ptr noundef getelementptr inbounds nuw (%struct.conmgr_t, ptr @mgr, i32 0, i32 22)) #8
  store i32 %8, ptr %3, align 4
  %9 = load i32, ptr %3, align 4
  %10 = icmp ne i32 %9, 0
  br i1 %10, label %11, label %14

11:                                               ; preds = %7
  %12 = load i32, ptr %3, align 4
  %13 = call ptr @__errno_location() #9
  store i32 %12, ptr %13, align 4
  call void (ptr, ...) @fatal_abort(ptr noundef @.str.6, ptr noundef @__func__.conmgr_quiesce) #10
  unreachable

14:                                               ; preds = %7
  call void @llvm.lifetime.end.p0(i64 4, ptr %3) #8
  br label %15

15:                                               ; preds = %14
  br label %16

16:                                               ; preds = %15
  %17 = load i64, ptr getelementptr inbounds nuw (%struct.slurm_conf_t, ptr @slurm_conf, i32 0, i32 42), align 8
  %18 = and i64 %17, 512
  %19 = icmp ne i64 %18, 0
  br i1 %19, label %20, label %28

20:                                               ; preds = %16
  br label %21

21:                                               ; preds = %20
  %22 = call i32 @get_log_level()
  %23 = icmp sge i32 %22, 4
  br i1 %23, label %24, label %26

24:                                               ; preds = %21
  %25 = load ptr, ptr %2, align 8
  call void (i32, ptr, ...) @log_var(i32 noundef 4, ptr noundef @.str.33, ptr noundef %25, ptr noundef @__func__.conmgr_quiesce)
  br label %26

26:                                               ; preds = %24, %21
  br label %27

27:                                               ; preds = %26
  br label %28

28:                                               ; preds = %27, %16
  br label %29

29:                                               ; preds = %28
  br label %30

30:                                               ; preds = %33, %29
  %31 = load i8, ptr getelementptr inbounds nuw (%struct.conmgr_t, ptr @mgr, i32 0, i32 24), align 8, !range !8, !noundef !9
  %32 = trunc i8 %31 to i1
  br i1 %32, label %33, label %40

33:                                               ; preds = %30
  %34 = getelementptr inbounds nuw %struct.timespec, ptr %4, i32 0, i32 0
  store i64 0, ptr %34, align 8
  %35 = getelementptr inbounds nuw %struct.timespec, ptr %4, i32 0, i32 1
  store i64 0, ptr %35, align 8
  %36 = getelementptr inbounds nuw { i64, i64 }, ptr %4, i32 0, i32 0
  %37 = load i64, ptr %36, align 8
  %38 = getelementptr inbounds nuw { i64, i64 }, ptr %4, i32 0, i32 1
  %39 = load i64, ptr %38, align 8
  call void @event_wait_now(ptr noundef getelementptr inbounds nuw (%struct.anon.1, ptr getelementptr inbounds nuw (%struct.conmgr_t, ptr @mgr, i32 0, i32 24), i32 0, i32 3), ptr noundef getelementptr inbounds nuw (%struct.conmgr_t, ptr @mgr, i32 0, i32 22), i64 %37, i64 %39, ptr noundef @__func__.conmgr_quiesce)
  br label %30, !llvm.loop !13

40:                                               ; preds = %30
  store i8 1, ptr getelementptr inbounds nuw (%struct.conmgr_t, ptr @mgr, i32 0, i32 24), align 8
  br label %41

41:                                               ; preds = %45, %40
  %42 = load i8, ptr getelementptr inbounds nuw (%struct.anon.1, ptr getelementptr inbounds nuw (%struct.conmgr_t, ptr @mgr, i32 0, i32 24), i32 0, i32 1), align 1, !range !8, !noundef !9
  %43 = trunc i8 %42 to i1
  %44 = xor i1 %43, true
  br i1 %44, label %45, label %52

45:                                               ; preds = %41
  call void @event_signal_now(i1 noundef zeroext false, ptr noundef getelementptr inbounds nuw (%struct.conmgr_t, ptr @mgr, i32 0, i32 25), ptr noundef @__func__.conmgr_quiesce)
  %46 = getelementptr inbounds nuw %struct.timespec, ptr %5, i32 0, i32 0
  store i64 0, ptr %46, align 8
  %47 = getelementptr inbounds nuw %struct.timespec, ptr %5, i32 0, i32 1
  store i64 0, ptr %47, align 8
  %48 = getelementptr inbounds nuw { i64, i64 }, ptr %5, i32 0, i32 0
  %49 = load i64, ptr %48, align 8
  %50 = getelementptr inbounds nuw { i64, i64 }, ptr %5, i32 0, i32 1
  %51 = load i64, ptr %50, align 8
  call void @event_wait_now(ptr noundef getelementptr inbounds nuw (%struct.anon.1, ptr getelementptr inbounds nuw (%struct.conmgr_t, ptr @mgr, i32 0, i32 24), i32 0, i32 2), ptr noundef getelementptr inbounds nuw (%struct.conmgr_t, ptr @mgr, i32 0, i32 22), i64 %49, i64 %51, ptr noundef @__func__.conmgr_quiesce)
  br label %41, !llvm.loop !14

52:                                               ; preds = %41
  br label %53

53:                                               ; preds = %52
  call void @llvm.lifetime.start.p0(i64 4, ptr %6) #8
  %54 = call i32 @pthread_mutex_unlock(ptr noundef getelementptr inbounds nuw (%struct.conmgr_t, ptr @mgr, i32 0, i32 22)) #8
  store i32 %54, ptr %6, align 4
  %55 = load i32, ptr %6, align 4
  %56 = icmp ne i32 %55, 0
  br i1 %56, label %57, label %60

57:                                               ; preds = %53
  %58 = load i32, ptr %6, align 4
  %59 = call ptr @__errno_location() #9
  store i32 %58, ptr %59, align 4
  call void (ptr, ...) @fatal_abort(ptr noundef @.str.9, ptr noundef @__func__.conmgr_quiesce) #10
  unreachable

60:                                               ; preds = %53
  call void @llvm.lifetime.end.p0(i64 4, ptr %6) #8
  br label %61

61:                                               ; preds = %60
  ret void
}