; Function Attrs: nounwind uwtable
define dso_local void @conmgr_quiesce(ptr noundef %0) local_unnamed_addr #0 {
  %2 = tail call i32 @pthread_mutex_lock(ptr noundef nonnull getelementptr inbounds nuw (i8, ptr @mgr, i64 168)) #11
  %.not = icmp eq i32 %2, 0
  br i1 %.not, label %5, label %3

3:                                                ; preds = %1
  %4 = tail call ptr @__errno_location() #12
  store i32 %2, ptr %4, align 4
  tail call void (ptr, ...) @fatal_abort(ptr noundef nonnull @.str.6, ptr noundef nonnull @__func__.conmgr_quiesce) #13
  unreachable

5:                                                ; preds = %1
  %6 = load i64, ptr getelementptr inbounds nuw (i8, ptr @slurm_conf, i64 320), align 8
  %7 = and i64 %6, 512
  %.not7 = icmp eq i64 %7, 0
  br i1 %.not7, label %12, label %8

8:                                                ; preds = %5
  %9 = tail call i32 @get_log_level() #11
  %10 = icmp sgt i32 %9, 3
  br i1 %10, label %11, label %12

11:                                               ; preds = %8
  tail call void (i32, ptr, ...) @log_var(i32 noundef 4, ptr noundef nonnull @.str.33, ptr noundef %0, ptr noundef nonnull @__func__.conmgr_quiesce) #11
  br label %12

12:                                               ; preds = %5, %8, %11
  %13 = load i8, ptr getelementptr inbounds nuw (i8, ptr @mgr, i64 240), align 8, !range !8, !noundef !9
  %14 = trunc nuw i8 %13 to i1
  br i1 %14, label %.lr.ph, label %._crit_edge

.lr.ph:                                           ; preds = %12, %.lr.ph
  tail call void @event_wait_now(ptr noundef nonnull getelementptr inbounds nuw (i8, ptr @mgr, i64 312), ptr noundef nonnull getelementptr inbounds nuw (i8, ptr @mgr, i64 168), i64 0, i64 0, ptr noundef nonnull @__func__.conmgr_quiesce) #11
  %15 = load i8, ptr getelementptr inbounds nuw (i8, ptr @mgr, i64 240), align 8, !range !8, !noundef !9
  %16 = trunc nuw i8 %15 to i1
  br i1 %16, label %.lr.ph, label %._crit_edge, !llvm.loop !13

._crit_edge:                                      ; preds = %.lr.ph, %12
  store i8 1, ptr getelementptr inbounds nuw (i8, ptr @mgr, i64 240), align 8
  %17 = load i8, ptr getelementptr inbounds nuw (i8, ptr @mgr, i64 241), align 1, !range !8, !noundef !9
  %18 = trunc nuw i8 %17 to i1
  br i1 %18, label %._crit_edge11, label %.lr.ph10

.lr.ph10:                                         ; preds = %._crit_edge, %.lr.ph10
  tail call void @event_signal_now(i1 noundef zeroext false, ptr noundef nonnull getelementptr inbounds nuw (i8, ptr @mgr, i64 376), ptr noundef nonnull @__func__.conmgr_quiesce) #11
  tail call void @event_wait_now(ptr noundef nonnull getelementptr inbounds nuw (i8, ptr @mgr, i64 248), ptr noundef nonnull getelementptr inbounds nuw (i8, ptr @mgr, i64 168), i64 0, i64 0, ptr noundef nonnull @__func__.conmgr_quiesce) #11
  %19 = load i8, ptr getelementptr inbounds nuw (i8, ptr @mgr, i64 241), align 1, !range !8, !noundef !9
  %20 = trunc nuw i8 %19 to i1
  br i1 %20, label %._crit_edge11, label %.lr.ph10, !llvm.loop !14

._crit_edge11:                                    ; preds = %.lr.ph10, %._crit_edge
  %21 = tail call i32 @pthread_mutex_unlock(ptr noundef nonnull getelementptr inbounds nuw (i8, ptr @mgr, i64 168)) #11
  %.not8 = icmp eq i32 %21, 0
  br i1 %.not8, label %24, label %22

22:                                               ; preds = %._crit_edge11
  %23 = tail call ptr @__errno_location() #12
  store i32 %21, ptr %23, align 4
  tail call void (ptr, ...) @fatal_abort(ptr noundef nonnull @.str.9, ptr noundef nonnull @__func__.conmgr_quiesce) #13
  unreachable

24:                                               ; preds = %._crit_edge11
  ret void
}